; Function Attrs: mustprogress nofree norecurse nosync nounwind willreturn memory(read, inaccessiblemem: none) uwtable
define range(i32 0, 2) i32 @Gia_ManQuantCheckSupp(ptr noundef readonly captures(none) %0, i32 noundef %1, i32 noundef %2) local_unnamed_addr #6 {
  %4 = getelementptr i8, ptr %0, i64 980
  %.val = load i32, ptr %4, align 4, !tbaa !31
  %5 = getelementptr i8, ptr %0, i64 984
  %.val2 = load ptr, ptr %5, align 8, !tbaa !32
  %6 = getelementptr i8, ptr %.val2, i64 8
  %.val2.val = load ptr, ptr %6, align 8, !tbaa !33
  %7 = mul nsw i32 %.val, %1
  %8 = sext i32 %7 to i64
  %9 = getelementptr inbounds i64, ptr %.val2.val, i64 %8
  %10 = ashr i32 %2, 6
  %11 = sext i32 %10 to i64
  %12 = getelementptr inbounds i64, ptr %9, i64 %11
  %13 = load i64, ptr %12, align 8, !tbaa !38
  %14 = and i32 %2, 63
  %15 = zext nneg i32 %14 to i64
  %16 = lshr i64 %13, %15
  %17 = trunc i64 %16 to i32
  %18 = and i32 %17, 1
  ret i32 %18
}